target datalayout = "e-m:e-p270:32:32-p271:32:32-p272:64:64-i64:64-i128:128-f80:128-n8:16:32:64-S128"
target triple = "x86_64-pc-linux-gnu"

%struct.pmix_class_t = type { ptr, ptr, ptr, ptr, i32, i32, ptr, ptr, i64 }
%struct.pmix_list_t = type { %struct.pmix_object_t, %struct.pmix_list_item_t, i64 }
%struct.pmix_object_t = type { %union.pthread_mutex_t, ptr, i32, %struct.pmix_tma }
%union.pthread_mutex_t = type { %struct.__pthread_mutex_s }
%struct.__pthread_mutex_s = type { i32, i32, i32, i32, i32, i16, i16, %struct.__pthread_internal_list }
%struct.__pthread_internal_list = type { ptr, ptr }
%struct.pmix_tma = type { ptr, ptr, ptr, ptr, ptr, ptr, ptr, ptr }
%struct.pmix_list_item_t = type { %struct.pmix_object_t, ptr, ptr, i32 }
%struct.pmix_globals_t = type { i32, %struct.pmix_proc, %struct.pmix_value, %struct.pmix_value, ptr, i32, i32, ptr, i32, i32, i32, i32, i32, ptr, ptr, i32, %struct.pmix_events_t, i8, i8, %struct.timeval, %struct.pmix_list_t, %struct.pmix_pointer_array_t, i32, i32, %struct.pmix_hotel_t, i8, %struct.pmix_list_t, i8, i8, i8, i64, %struct.pmix_list_t, %struct.pmix_topology_t, %struct.pmix_cpuset_t, i8, i8, %struct.pmix_iof_flags_t, %struct.pmix_keyindex_t }
%struct.pmix_proc = type { [256 x i8], i32 }
%struct.pmix_value = type { i16, %union.anon }
%union.anon = type { %struct.pmix_envar_t }
%struct.pmix_envar_t = type { ptr, ptr, i8 }
%struct.pmix_events_t = type { %struct.pmix_object_t, i64, ptr, ptr, %struct.pmix_list_t, %struct.pmix_list_t, %struct.pmix_list_t, %struct.pmix_list_t }
%struct.timeval = type { i64, i64 }
%struct.pmix_pointer_array_t = type { %struct.pmix_object_t, i32, i32, i32, i32, i32, ptr, ptr }
%struct.pmix_hotel_t = type { %struct.pmix_object_t, i32, ptr, %struct.timeval, ptr, ptr, ptr, ptr, i32 }
%struct.pmix_topology_t = type { ptr, ptr }
%struct.pmix_cpuset_t = type { ptr, ptr }
%struct.pmix_iof_flags_t = type { i8, i8, i8, i8, i8, i8, i8, ptr, ptr, i8, i8, i8, i8, i8, i8 }
%struct.pmix_keyindex_t = type { %struct.pmix_object_t, ptr, i32 }
%struct.pmix_regattr_input_t = type { i32, ptr, ptr, i16, ptr }

@initialized = internal global i8 0, align 1
@pmix_class_init_epoch = external global i32, align 4
@pmix_list_t_class = external global %struct.pmix_class_t, align 8
@client_attrs = internal global %struct.pmix_list_t zeroinitializer, align 8
@server_attrs = internal global %struct.pmix_list_t zeroinitializer, align 8
@host_attrs = internal global %struct.pmix_list_t zeroinitializer, align 8
@tool_attrs = internal global %struct.pmix_list_t zeroinitializer, align 8
@pmix_globals = external global %struct.pmix_globals_t, align 8
@pmix_dictionary = external constant [582 x %struct.pmix_regattr_input_t], align 16

; Function Attrs: inlinehint nounwind uwtable
define internal ptr @pmix_malloc(i64 noundef %0) #3 {
  %2 = alloca i64, align 8
  store i64 %0, ptr %2, align 8, !tbaa !41
  %3 = load i64, ptr %2, align 8, !tbaa !41
  %4 = call noalias ptr @malloc(i64 noundef %3) #14
  ret ptr %4
}

; Function Attrs: inlinehint nounwind uwtable
define internal void @pmix_obj_run_constructors(ptr noundef %0) #3 {
  %2 = alloca ptr, align 8
  %3 = alloca ptr, align 8
  store ptr %0, ptr %2, align 8, !tbaa !53
  call void @llvm.lifetime.start.p0(i64 8, ptr %3) #13
  %4 = load ptr, ptr %2, align 8, !tbaa !53
  %5 = getelementptr inbounds nuw %struct.pmix_object_t, ptr %4, i32 0, i32 1
  %6 = load ptr, ptr %5, align 8, !tbaa !17
  %7 = getelementptr inbounds nuw %struct.pmix_class_t, ptr %6, i32 0, i32 6
  %8 = load ptr, ptr %7, align 8, !tbaa !66
  store ptr %8, ptr %3, align 8, !tbaa !42
  br label %9

9:                                                ; preds = %13, %1
  %10 = load ptr, ptr %3, align 8, !tbaa !42
  %11 = load ptr, ptr %10, align 8, !tbaa !42
  %12 = icmp ne ptr null, %11
  br i1 %12, label %13, label %19

13:                                               ; preds = %9
  %14 = load ptr, ptr %3, align 8, !tbaa !42
  %15 = load ptr, ptr %14, align 8, !tbaa !42
  %16 = load ptr, ptr %2, align 8, !tbaa !53
  call void %15(ptr noundef %16)
  %17 = load ptr, ptr %3, align 8, !tbaa !42
  %18 = getelementptr inbounds nuw ptr, ptr %17, i32 1
  store ptr %18, ptr %3, align 8, !tbaa !42
  br label %9, !llvm.loop !67

19:                                               ; preds = %9
  call void @llvm.lifetime.end.p0(i64 8, ptr %3) #13
  ret void
}

; Function Attrs: inlinehint nounwind uwtable
define internal void @pmix_obj_construct_tma(ptr noundef %0, ptr noundef %1) #3 {
  %3 = alloca ptr, align 8
  %4 = alloca ptr, align 8
  store ptr %0, ptr %3, align 8, !tbaa !53
  store ptr %1, ptr %4, align 8, !tbaa !55
  %5 = load ptr, ptr %4, align 8, !tbaa !55
  %6 = icmp eq ptr null, %5
  br i1 %6, label %7, label %32

7:                                                ; preds = %2
  %8 = load ptr, ptr %3, align 8, !tbaa !53
  %9 = getelementptr inbounds nuw %struct.pmix_object_t, ptr %8, i32 0, i32 3
  %10 = getelementptr inbounds nuw %struct.pmix_tma, ptr %9, i32 0, i32 0
  store ptr null, ptr %10, align 8, !tbaa !57
  %11 = load ptr, ptr %3, align 8, !tbaa !53
  %12 = getelementptr inbounds nuw %struct.pmix_object_t, ptr %11, i32 0, i32 3
  %13 = getelementptr inbounds nuw %struct.pmix_tma, ptr %12, i32 0, i32 1
  store ptr null, ptr %13, align 8, !tbaa !58
  %14 = load ptr, ptr %3, align 8, !tbaa !53
  %15 = getelementptr inbounds nuw %struct.pmix_object_t, ptr %14, i32 0, i32 3
  %16 = getelementptr inbounds nuw %struct.pmix_tma, ptr %15, i32 0, i32 2
  store ptr null, ptr %16, align 8, !tbaa !59
  %17 = load ptr, ptr %3, align 8, !tbaa !53
  %18 = getelementptr inbounds nuw %struct.pmix_object_t, ptr %17, i32 0, i32 3
  %19 = getelementptr inbounds nuw %struct.pmix_tma, ptr %18, i32 0, i32 3
  store ptr null, ptr %19, align 8, !tbaa !60
  %20 = load ptr, ptr %3, align 8, !tbaa !53
  %21 = getelementptr inbounds nuw %struct.pmix_object_t, ptr %20, i32 0, i32 3
  %22 = getelementptr inbounds nuw %struct.pmix_tma, ptr %21, i32 0, i32 4
  store ptr null, ptr %22, align 8, !tbaa !61
  %23 = load ptr, ptr %3, align 8, !tbaa !53
  %24 = getelementptr inbounds nuw %struct.pmix_object_t, ptr %23, i32 0, i32 3
  %25 = getelementptr inbounds nuw %struct.pmix_tma, ptr %24, i32 0, i32 5
  store ptr null, ptr %25, align 8, !tbaa !62
  %26 = load ptr, ptr %3, align 8, !tbaa !53
  %27 = getelementptr inbounds nuw %struct.pmix_object_t, ptr %26, i32 0, i32 3
  %28 = getelementptr inbounds nuw %struct.pmix_tma, ptr %27, i32 0, i32 6
  store ptr null, ptr %28, align 8, !tbaa !63
  %29 = load ptr, ptr %3, align 8, !tbaa !53
  %30 = getelementptr inbounds nuw %struct.pmix_object_t, ptr %29, i32 0, i32 3
  %31 = getelementptr inbounds nuw %struct.pmix_tma, ptr %30, i32 0, i32 7
  store ptr null, ptr %31, align 8, !tbaa !64
  br label %36

32:                                               ; preds = %2
  %33 = load ptr, ptr %3, align 8, !tbaa !53
  %34 = getelementptr inbounds nuw %struct.pmix_object_t, ptr %33, i32 0, i32 3
  %35 = load ptr, ptr %4, align 8, !tbaa !55
  call void @llvm.memcpy.p0.p0.i64(ptr align 8 %34, ptr align 8 %35, i64 64, i1 false), !tbaa.struct !65
  br label %36

36:                                               ; preds = %32, %7
  ret void
}

; Function Attrs: nounwind uwtable
define void @pmix_init_registered_attrs() #0 {
  %1 = alloca i64, align 8
  %2 = alloca ptr, align 8
  call void @llvm.lifetime.start.p0(i64 8, ptr %1) #13
  call void @llvm.lifetime.start.p0(i64 8, ptr %2) #13
  %3 = load i8, ptr @initialized, align 1, !tbaa !3, !range !7, !noundef !8
  %4 = trunc i8 %3 to i1
  br i1 %4, label %110, label %5

5:                                                ; preds = %0
  br label %6

6:                                                ; preds = %5
  br label %7

7:                                                ; preds = %6
  br label %8

8:                                                ; preds = %7
  %9 = load i32, ptr @pmix_class_init_epoch, align 4, !tbaa !9
  %10 = load i32, ptr getelementptr inbounds nuw (%struct.pmix_class_t, ptr @pmix_list_t_class, i32 0, i32 4), align 8, !tbaa !11
  %11 = icmp ne i32 %9, %10
  br i1 %11, label %12, label %13

12:                                               ; preds = %8
  call void @pmix_class_initialize(ptr noundef @pmix_list_t_class)
  br label %13

13:                                               ; preds = %12, %8
  store ptr @pmix_list_t_class, ptr getelementptr inbounds nuw (%struct.pmix_object_t, ptr @client_attrs, i32 0, i32 1), align 8, !tbaa !17
  store i32 1, ptr getelementptr inbounds nuw (%struct.pmix_object_t, ptr @client_attrs, i32 0, i32 2), align 8, !tbaa !20
  call void @pmix_obj_construct_tma(ptr noundef @client_attrs, ptr noundef null)
  call void @pmix_obj_run_constructors(ptr noundef @client_attrs)
  br label %14

14:                                               ; preds = %13
  br label %15

15:                                               ; preds = %14
  br label %16

16:                                               ; preds = %15
  br label %17

17:                                               ; preds = %16
  br label %18

18:                                               ; preds = %17
  br label %19

19:                                               ; preds = %18
  br label %20

20:                                               ; preds = %19
  br label %21

21:                                               ; preds = %20
  br label %22

22:                                               ; preds = %21
  %23 = load i32, ptr @pmix_class_init_epoch, align 4, !tbaa !9
  %24 = load i32, ptr getelementptr inbounds nuw (%struct.pmix_class_t, ptr @pmix_list_t_class, i32 0, i32 4), align 8, !tbaa !11
  %25 = icmp ne i32 %23, %24
  br i1 %25, label %26, label %27

26:                                               ; preds = %22
  call void @pmix_class_initialize(ptr noundef @pmix_list_t_class)
  br label %27

27:                                               ; preds = %26, %22
  store ptr @pmix_list_t_class, ptr getelementptr inbounds nuw (%struct.pmix_object_t, ptr @server_attrs, i32 0, i32 1), align 8, !tbaa !17
  store i32 1, ptr getelementptr inbounds nuw (%struct.pmix_object_t, ptr @server_attrs, i32 0, i32 2), align 8, !tbaa !20
  call void @pmix_obj_construct_tma(ptr noundef @server_attrs, ptr noundef null)
  call void @pmix_obj_run_constructors(ptr noundef @server_attrs)
  br label %28

28:                                               ; preds = %27
  br label %29

29:                                               ; preds = %28
  br label %30

30:                                               ; preds = %29
  br label %31

31:                                               ; preds = %30
  br label %32

32:                                               ; preds = %31
  br label %33

33:                                               ; preds = %32
  br label %34

34:                                               ; preds = %33
  br label %35

35:                                               ; preds = %34
  br label %36

36:                                               ; preds = %35
  %37 = load i32, ptr @pmix_class_init_epoch, align 4, !tbaa !9
  %38 = load i32, ptr getelementptr inbounds nuw (%struct.pmix_class_t, ptr @pmix_list_t_class, i32 0, i32 4), align 8, !tbaa !11
  %39 = icmp ne i32 %37, %38
  br i1 %39, label %40, label %41

40:                                               ; preds = %36
  call void @pmix_class_initialize(ptr noundef @pmix_list_t_class)
  br label %41

41:                                               ; preds = %40, %36
  store ptr @pmix_list_t_class, ptr getelementptr inbounds nuw (%struct.pmix_object_t, ptr @host_attrs, i32 0, i32 1), align 8, !tbaa !17
  store i32 1, ptr getelementptr inbounds nuw (%struct.pmix_object_t, ptr @host_attrs, i32 0, i32 2), align 8, !tbaa !20
  call void @pmix_obj_construct_tma(ptr noundef @host_attrs, ptr noundef null)
  call void @pmix_obj_run_constructors(ptr noundef @host_attrs)
  br label %42

42:                                               ; preds = %41
  br label %43

43:                                               ; preds = %42
  br label %44

44:                                               ; preds = %43
  br label %45

45:                                               ; preds = %44
  br label %46

46:                                               ; preds = %45
  br label %47

47:                                               ; preds = %46
  br label %48

48:                                               ; preds = %47
  br label %49

49:                                               ; preds = %48
  br label %50

50:                                               ; preds = %49
  %51 = load i32, ptr @pmix_class_init_epoch, align 4, !tbaa !9
  %52 = load i32, ptr getelementptr inbounds nuw (%struct.pmix_class_t, ptr @pmix_list_t_class, i32 0, i32 4), align 8, !tbaa !11
  %53 = icmp ne i32 %51, %52
  br i1 %53, label %54, label %55

54:                                               ; preds = %50
  call void @pmix_class_initialize(ptr noundef @pmix_list_t_class)
  br label %55

55:                                               ; preds = %54, %50
  store ptr @pmix_list_t_class, ptr getelementptr inbounds nuw (%struct.pmix_object_t, ptr @tool_attrs, i32 0, i32 1), align 8, !tbaa !17
  store i32 1, ptr getelementptr inbounds nuw (%struct.pmix_object_t, ptr @tool_attrs, i32 0, i32 2), align 8, !tbaa !20
  call void @pmix_obj_construct_tma(ptr noundef @tool_attrs, ptr noundef null)
  call void @pmix_obj_run_constructors(ptr noundef @tool_attrs)
  br label %56

56:                                               ; preds = %55
  br label %57

57:                                               ; preds = %56
  br label %58

58:                                               ; preds = %57
  br label %59

59:                                               ; preds = %58
  br label %60

60:                                               ; preds = %59
  br label %61

61:                                               ; preds = %60
  %62 = load ptr, ptr getelementptr inbounds nuw (%struct.pmix_keyindex_t, ptr getelementptr inbounds nuw (%struct.pmix_globals_t, ptr @pmix_globals, i32 0, i32 37), i32 0, i32 1), align 8, !tbaa !21
  %63 = call i32 @pmix_pointer_array_set_size(ptr noundef %62, i32 noundef 582)
  store i64 0, ptr %1, align 8, !tbaa !41
  br label %64

64:                                               ; preds = %106, %61
  %65 = load i64, ptr %1, align 8, !tbaa !41
  %66 = icmp ult i64 %65, 582
  br i1 %66, label %67, label %109

67:                                               ; preds = %64
  %68 = call ptr @pmix_malloc(i64 noundef 40)
  store ptr %68, ptr %2, align 8, !tbaa !42
  %69 = load i64, ptr %1, align 8, !tbaa !41
  %70 = getelementptr inbounds nuw [582 x %struct.pmix_regattr_input_t], ptr @pmix_dictionary, i64 0, i64 %69
  %71 = getelementptr inbounds nuw %struct.pmix_regattr_input_t, ptr %70, i32 0, i32 0
  %72 = load i32, ptr %71, align 8, !tbaa !43
  %73 = load ptr, ptr %2, align 8, !tbaa !42
  %74 = getelementptr inbounds nuw %struct.pmix_regattr_input_t, ptr %73, i32 0, i32 0
  store i32 %72, ptr %74, align 8, !tbaa !43
  %75 = load i64, ptr %1, align 8, !tbaa !41
  %76 = getelementptr inbounds nuw [582 x %struct.pmix_regattr_input_t], ptr @pmix_dictionary, i64 0, i64 %75
  %77 = getelementptr inbounds nuw %struct.pmix_regattr_input_t, ptr %76, i32 0, i32 1
  %78 = load ptr, ptr %77, align 8, !tbaa !46
  %79 = call noalias ptr @strdup(ptr noundef %78) #13
  %80 = load ptr, ptr %2, align 8, !tbaa !42
  %81 = getelementptr inbounds nuw %struct.pmix_regattr_input_t, ptr %80, i32 0, i32 1
  store ptr %79, ptr %81, align 8, !tbaa !46
  %82 = load i64, ptr %1, align 8, !tbaa !41
  %83 = getelementptr inbounds nuw [582 x %struct.pmix_regattr_input_t], ptr @pmix_dictionary, i64 0, i64 %82
  %84 = getelementptr inbounds nuw %struct.pmix_regattr_input_t, ptr %83, i32 0, i32 2
  %85 = load ptr, ptr %84, align 8, !tbaa !47
  %86 = call noalias ptr @strdup(ptr noundef %85) #13
  %87 = load ptr, ptr %2, align 8, !tbaa !42
  %88 = getelementptr inbounds nuw %struct.pmix_regattr_input_t, ptr %87, i32 0, i32 2
  store ptr %86, ptr %88, align 8, !tbaa !47
  %89 = load i64, ptr %1, align 8, !tbaa !41
  %90 = getelementptr inbounds nuw [582 x %struct.pmix_regattr_input_t], ptr @pmix_dictionary, i64 0, i64 %89
  %91 = getelementptr inbounds nuw %struct.pmix_regattr_input_t, ptr %90, i32 0, i32 3
  %92 = load i16, ptr %91, align 8, !tbaa !48
  %93 = load ptr, ptr %2, align 8, !tbaa !42
  %94 = getelementptr inbounds nuw %struct.pmix_regattr_input_t, ptr %93, i32 0, i32 3
  store i16 %92, ptr %94, align 8, !tbaa !48
  %95 = load i64, ptr %1, align 8, !tbaa !41
  %96 = getelementptr inbounds nuw [582 x %struct.pmix_regattr_input_t], ptr @pmix_dictionary, i64 0, i64 %95
  %97 = getelementptr inbounds nuw %struct.pmix_regattr_input_t, ptr %96, i32 0, i32 4
  %98 = load ptr, ptr %97, align 8, !tbaa !49
  %99 = call ptr @PMIx_Argv_copy(ptr noundef %98)
  %100 = load ptr, ptr %2, align 8, !tbaa !42
  %101 = getelementptr inbounds nuw %struct.pmix_regattr_input_t, ptr %100, i32 0, i32 4
  store ptr %99, ptr %101, align 8, !tbaa !49
  %102 = load ptr, ptr %2, align 8, !tbaa !42
  %103 = getelementptr inbounds nuw %struct.pmix_regattr_input_t, ptr %102, i32 0, i32 0
  %104 = load i32, ptr %103, align 8, !tbaa !43
  %105 = load ptr, ptr %2, align 8, !tbaa !42
  call void @pmix_hash_register_key(i32 noundef %104, ptr noundef %105, ptr noundef getelementptr inbounds nuw (%struct.pmix_globals_t, ptr @pmix_globals, i32 0, i32 37))
  br label %106

106:                                              ; preds = %67
  %107 = load i64, ptr %1, align 8, !tbaa !41
  %108 = add i64 %107, 1
  store i64 %108, ptr %1, align 8, !tbaa !41
  br label %64, !llvm.loop !50

109:                                              ; preds = %64
  store i32 582, ptr getelementptr inbounds nuw (%struct.pmix_keyindex_t, ptr getelementptr inbounds nuw (%struct.pmix_globals_t, ptr @pmix_globals, i32 0, i32 37), i32 0, i32 2), align 8, !tbaa !52
  store i8 1, ptr @initialized, align 1, !tbaa !3
  br label %110

110:                                              ; preds = %109, %0
  call void @llvm.lifetime.end.p0(i64 8, ptr %2) #13
  call void @llvm.lifetime.end.p0(i64 8, ptr %1) #13
  ret void
}