; Function Attrs: nounwind uwtable
define void @pmix_init_registered_attrs() local_unnamed_addr #0 {
  %.b13 = load i1, ptr @initialized, align 1
  br i1 %.b13, label %62, label %1

1:                                                ; preds = %0
  %2 = load i32, ptr @pmix_class_init_epoch, align 4, !tbaa !3
  %3 = load i32, ptr getelementptr inbounds nuw (i8, ptr @pmix_list_t_class, i64 32), align 8, !tbaa !7
  %.not = icmp eq i32 %2, %3
  br i1 %.not, label %5, label %4

4:                                                ; preds = %1
  tail call void @pmix_class_initialize(ptr noundef nonnull @pmix_list_t_class) #18
  br label %5

5:                                                ; preds = %4, %1
  store ptr @pmix_list_t_class, ptr getelementptr inbounds nuw (i8, ptr @client_attrs, i64 40), align 8, !tbaa !13
  store i32 1, ptr getelementptr inbounds nuw (i8, ptr @client_attrs, i64 48), align 8, !tbaa !16
  tail call void @llvm.memset.p0.i64(ptr noundef nonnull align 8 dereferenceable(64) getelementptr inbounds nuw (i8, ptr @client_attrs, i64 56), i8 0, i64 64, i1 false)
  %6 = load ptr, ptr getelementptr inbounds nuw (i8, ptr @pmix_list_t_class, i64 40), align 8, !tbaa !17
  %7 = load ptr, ptr %6, align 8, !tbaa !18
  %.not6.i = icmp eq ptr %7, null
  br i1 %.not6.i, label %pmix_obj_run_constructors.exit, label %.lr.ph.i

.lr.ph.i:                                         ; preds = %5, %.lr.ph.i
  %8 = phi ptr [ %10, %.lr.ph.i ], [ %7, %5 ]
  %.07.i = phi ptr [ %9, %.lr.ph.i ], [ %6, %5 ]
  tail call void %8(ptr noundef nonnull @client_attrs) #18
  %9 = getelementptr inbounds nuw i8, ptr %.07.i, i64 8
  %10 = load ptr, ptr %9, align 8, !tbaa !18
  %.not.i = icmp eq ptr %10, null
  br i1 %.not.i, label %pmix_obj_run_constructors.exit, label %.lr.ph.i, !llvm.loop !19

pmix_obj_run_constructors.exit:                   ; preds = %.lr.ph.i, %5
  %11 = load i32, ptr @pmix_class_init_epoch, align 4, !tbaa !3
  %12 = load i32, ptr getelementptr inbounds nuw (i8, ptr @pmix_list_t_class, i64 32), align 8, !tbaa !7
  %.not14 = icmp eq i32 %11, %12
  br i1 %.not14, label %14, label %13

13:                                               ; preds = %pmix_obj_run_constructors.exit
  tail call void @pmix_class_initialize(ptr noundef nonnull @pmix_list_t_class) #18
  br label %14

14:                                               ; preds = %13, %pmix_obj_run_constructors.exit
  store ptr @pmix_list_t_class, ptr getelementptr inbounds nuw (i8, ptr @server_attrs, i64 40), align 8, !tbaa !13
  store i32 1, ptr getelementptr inbounds nuw (i8, ptr @server_attrs, i64 48), align 8, !tbaa !16
  tail call void @llvm.memset.p0.i64(ptr noundef nonnull align 8 dereferenceable(64) getelementptr inbounds nuw (i8, ptr @server_attrs, i64 56), i8 0, i64 64, i1 false)
  %15 = load ptr, ptr getelementptr inbounds nuw (i8, ptr @pmix_list_t_class, i64 40), align 8, !tbaa !17
  %16 = load ptr, ptr %15, align 8, !tbaa !18
  %.not6.i17 = icmp eq ptr %16, null
  br i1 %.not6.i17, label %pmix_obj_run_constructors.exit21, label %.lr.ph.i18

.lr.ph.i18:                                       ; preds = %14, %.lr.ph.i18
  %17 = phi ptr [ %19, %.lr.ph.i18 ], [ %16, %14 ]
  %.07.i19 = phi ptr [ %18, %.lr.ph.i18 ], [ %15, %14 ]
  tail call void %17(ptr noundef nonnull @server_attrs) #18
  %18 = getelementptr inbounds nuw i8, ptr %.07.i19, i64 8
  %19 = load ptr, ptr %18, align 8, !tbaa !18
  %.not.i20 = icmp eq ptr %19, null
  br i1 %.not.i20, label %pmix_obj_run_constructors.exit21, label %.lr.ph.i18, !llvm.loop !19

pmix_obj_run_constructors.exit21:                 ; preds = %.lr.ph.i18, %14
  %20 = load i32, ptr @pmix_class_init_epoch, align 4, !tbaa !3
  %21 = load i32, ptr getelementptr inbounds nuw (i8, ptr @pmix_list_t_class, i64 32), align 8, !tbaa !7
  %.not15 = icmp eq i32 %20, %21
  br i1 %.not15, label %23, label %22

22:                                               ; preds = %pmix_obj_run_constructors.exit21
  tail call void @pmix_class_initialize(ptr noundef nonnull @pmix_list_t_class) #18
  br label %23

23:                                               ; preds = %22, %pmix_obj_run_constructors.exit21
  store ptr @pmix_list_t_class, ptr getelementptr inbounds nuw (i8, ptr @host_attrs, i64 40), align 8, !tbaa !13
  store i32 1, ptr getelementptr inbounds nuw (i8, ptr @host_attrs, i64 48), align 8, !tbaa !16
  tail call void @llvm.memset.p0.i64(ptr noundef nonnull align 8 dereferenceable(64) getelementptr inbounds nuw (i8, ptr @host_attrs, i64 56), i8 0, i64 64, i1 false)
  %24 = load ptr, ptr getelementptr inbounds nuw (i8, ptr @pmix_list_t_class, i64 40), align 8, !tbaa !17
  %25 = load ptr, ptr %24, align 8, !tbaa !18
  %.not6.i22 = icmp eq ptr %25, null
  br i1 %.not6.i22, label %pmix_obj_run_constructors.exit26, label %.lr.ph.i23

.lr.ph.i23:                                       ; preds = %23, %.lr.ph.i23
  %26 = phi ptr [ %28, %.lr.ph.i23 ], [ %25, %23 ]
  %.07.i24 = phi ptr [ %27, %.lr.ph.i23 ], [ %24, %23 ]
  tail call void %26(ptr noundef nonnull @host_attrs) #18
  %27 = getelementptr inbounds nuw i8, ptr %.07.i24, i64 8
  %28 = load ptr, ptr %27, align 8, !tbaa !18
  %.not.i25 = icmp eq ptr %28, null
  br i1 %.not.i25, label %pmix_obj_run_constructors.exit26, label %.lr.ph.i23, !llvm.loop !19

pmix_obj_run_constructors.exit26:                 ; preds = %.lr.ph.i23, %23
  %29 = load i32, ptr @pmix_class_init_epoch, align 4, !tbaa !3
  %30 = load i32, ptr getelementptr inbounds nuw (i8, ptr @pmix_list_t_class, i64 32), align 8, !tbaa !7
  %.not16 = icmp eq i32 %29, %30
  br i1 %.not16, label %32, label %31

31:                                               ; preds = %pmix_obj_run_constructors.exit26
  tail call void @pmix_class_initialize(ptr noundef nonnull @pmix_list_t_class) #18
  br label %32

32:                                               ; preds = %31, %pmix_obj_run_constructors.exit26
  store ptr @pmix_list_t_class, ptr getelementptr inbounds nuw (i8, ptr @tool_attrs, i64 40), align 8, !tbaa !13
  store i32 1, ptr getelementptr inbounds nuw (i8, ptr @tool_attrs, i64 48), align 8, !tbaa !16
  tail call void @llvm.memset.p0.i64(ptr noundef nonnull align 8 dereferenceable(64) getelementptr inbounds nuw (i8, ptr @tool_attrs, i64 56), i8 0, i64 64, i1 false)
  %33 = load ptr, ptr getelementptr inbounds nuw (i8, ptr @pmix_list_t_class, i64 40), align 8, !tbaa !17
  %34 = load ptr, ptr %33, align 8, !tbaa !18
  %.not6.i27 = icmp eq ptr %34, null
  br i1 %.not6.i27, label %pmix_obj_run_constructors.exit31, label %.lr.ph.i28

.lr.ph.i28:                                       ; preds = %32, %.lr.ph.i28
  %35 = phi ptr [ %37, %.lr.ph.i28 ], [ %34, %32 ]
  %.07.i29 = phi ptr [ %36, %.lr.ph.i28 ], [ %33, %32 ]
  tail call void %35(ptr noundef nonnull @tool_attrs) #18
  %36 = getelementptr inbounds nuw i8, ptr %.07.i29, i64 8
  %37 = load ptr, ptr %36, align 8, !tbaa !18
  %.not.i30 = icmp eq ptr %37, null
  br i1 %.not.i30, label %pmix_obj_run_constructors.exit31, label %.lr.ph.i28, !llvm.loop !19

pmix_obj_run_constructors.exit31:                 ; preds = %.lr.ph.i28, %32
  %38 = load ptr, ptr getelementptr inbounds nuw (i8, ptr @pmix_globals, i64 3048), align 8, !tbaa !21
  %39 = tail call i32 @pmix_pointer_array_set_size(ptr noundef %38, i32 noundef 582) #18
  br label %40

40:                                               ; preds = %pmix_obj_run_constructors.exit31, %40
  %.032 = phi i64 [ 0, %pmix_obj_run_constructors.exit31 ], [ %60, %40 ]
  %41 = tail call noalias noundef dereferenceable_or_null(40) ptr @malloc(i64 noundef 40) #19
  %42 = getelementptr inbounds nuw [582 x %struct.pmix_regattr_input_t], ptr @pmix_dictionary, i64 0, i64 %.032
  %43 = load i32, ptr %42, align 8, !tbaa !42
  store i32 %43, ptr %41, align 8, !tbaa !42
  %44 = getelementptr inbounds nuw i8, ptr %42, i64 8
  %45 = load ptr, ptr %44, align 8, !tbaa !45
  %46 = tail call noalias ptr @strdup(ptr noundef %45) #18
  %47 = getelementptr inbounds nuw i8, ptr %41, i64 8
  store ptr %46, ptr %47, align 8, !tbaa !45
  %48 = getelementptr inbounds nuw i8, ptr %42, i64 16
  %49 = load ptr, ptr %48, align 8, !tbaa !46
  %50 = tail call noalias ptr @strdup(ptr noundef %49) #18
  %51 = getelementptr inbounds nuw i8, ptr %41, i64 16
  store ptr %50, ptr %51, align 8, !tbaa !46
  %52 = getelementptr inbounds nuw i8, ptr %42, i64 24
  %53 = load i16, ptr %52, align 8, !tbaa !47
  %54 = getelementptr inbounds nuw i8, ptr %41, i64 24
  store i16 %53, ptr %54, align 8, !tbaa !47
  %55 = getelementptr inbounds nuw i8, ptr %42, i64 32
  %56 = load ptr, ptr %55, align 8, !tbaa !48
  %57 = tail call ptr @PMIx_Argv_copy(ptr noundef %56) #18
  %58 = getelementptr inbounds nuw i8, ptr %41, i64 32
  store ptr %57, ptr %58, align 8, !tbaa !48
  %59 = load i32, ptr %41, align 8, !tbaa !42
  tail call void @pmix_hash_register_key(i32 noundef %59, ptr noundef nonnull %41, ptr noundef nonnull getelementptr inbounds nuw (i8, ptr @pmix_globals, i64 2928)) #18
  %60 = add nuw nsw i64 %.032, 1
  %exitcond.not = icmp eq i64 %60, 582
  br i1 %exitcond.not, label %61, label %40, !llvm.loop !49

61:                                               ; preds = %40
  store i32 582, ptr getelementptr inbounds nuw (i8, ptr @pmix_globals, i64 3056), align 8, !tbaa !50
  store i1 true, ptr @initialized, align 1
  br label %62

62:                                               ; preds = %61, %0
  ret void
}